target datalayout = "e-m:e-p270:32:32-p271:32:32-p272:64:64-i64:64-i128:128-f80:128-n8:16:32:64-S128"
target triple = "x86_64-pc-linux-gnu"

%"struct.clang::format::WhitespaceManager::CellDescription" = type { i32, i32, i32, i8, ptr }

; Function Attrs: mustprogress nounwind uwtable
define dso_local noundef zeroext i1 @_ZN5clang6format17WhitespaceManager11isSplitCellERKNS1_15CellDescriptionE(ptr noundef nonnull align 8 dereferenceable(24) %0) #0 align 2 {
  %2 = alloca i1, align 1
  %3 = alloca ptr, align 8
  %4 = alloca ptr, align 8
  store ptr %0, ptr %3, align 8
  %5 = load ptr, ptr %3, align 8
  %6 = getelementptr inbounds nuw %"struct.clang::format::WhitespaceManager::CellDescription", ptr %5, i32 0, i32 3
  %7 = load i8, ptr %6, align 4
  %8 = trunc i8 %7 to i1
  br i1 %8, label %9, label %10

9:                                                ; preds = %1
  store i1 true, ptr %2, align 1
  br label %29

10:                                               ; preds = %1
  %11 = load ptr, ptr %3, align 8
  %12 = getelementptr inbounds nuw %"struct.clang::format::WhitespaceManager::CellDescription", ptr %11, i32 0, i32 4
  %13 = load ptr, ptr %12, align 8
  store ptr %13, ptr %4, align 8
  br label %14

14:                                               ; preds = %24, %10
  %15 = load ptr, ptr %4, align 8
  %16 = icmp ne ptr %15, null
  br i1 %16, label %17, label %28

17:                                               ; preds = %14
  %18 = load ptr, ptr %4, align 8
  %19 = getelementptr inbounds nuw %"struct.clang::format::WhitespaceManager::CellDescription", ptr %18, i32 0, i32 3
  %20 = load i8, ptr %19, align 4
  %21 = trunc i8 %20 to i1
  br i1 %21, label %22, label %23

22:                                               ; preds = %17
  store i1 true, ptr %2, align 1
  br label %29

23:                                               ; preds = %17
  br label %24

24:                                               ; preds = %23
  %25 = load ptr, ptr %4, align 8
  %26 = getelementptr inbounds nuw %"struct.clang::format::WhitespaceManager::CellDescription", ptr %25, i32 0, i32 4
  %27 = load ptr, ptr %26, align 8
  store ptr %27, ptr %4, align 8
  br label %14, !llvm.loop !44

28:                                               ; preds = %14
  store i1 false, ptr %2, align 1
  br label %29

29:                                               ; preds = %28, %22, %9
  %30 = load i1, ptr %2, align 1
  ret i1 %30
}