; Function Attrs: mustprogress nofree norecurse nosync nounwind willreturn memory(read, inaccessiblemem: none) uwtable
define dso_local noundef zeroext i1 @_ZN5clang6format17WhitespaceManager11isSplitCellERKNS1_15CellDescriptionE(ptr nocapture noundef nonnull readonly align 8 dereferenceable(24) %0) local_unnamed_addr #6 align 2 {
  %2 = getelementptr inbounds nuw i8, ptr %0, i64 12
  %3 = load i8, ptr %2, align 4
  %4 = trunc i8 %3 to i1
  br i1 %4, label %.loopexit, label %.preheader

.preheader:                                       ; preds = %1, %5
  %.pn = phi ptr [ %.0, %5 ], [ %0, %1 ]
  %.0.in = getelementptr inbounds nuw i8, ptr %.pn, i64 16
  %.0 = load ptr, ptr %.0.in, align 8
  %.not.not.not = icmp ne ptr %.0, null
  br i1 %.not.not.not, label %5, label %.loopexit

5:                                                ; preds = %.preheader
  %6 = getelementptr inbounds nuw i8, ptr %.0, i64 12
  %7 = load i8, ptr %6, align 4
  %8 = trunc i8 %7 to i1
  br i1 %8, label %.loopexit, label %.preheader, !llvm.loop !117

.loopexit:                                        ; preds = %.preheader, %5, %1
  %.06 = phi i1 [ true, %1 ], [ %.not.not.not, %5 ], [ %.not.not.not, %.preheader ]
  ret i1 %.06
}